Archive member included because of file (symbol)

c:/nxp/lpcxpresso_5.0.14_1109/lpcxpresso/tools/bin/../lib/gcc/arm-none-eabi/4.6.2/../../../../arm-none-eabi/lib/armv7-m\libcr_c.a(__weak__main.o)
                              ./src/bsp/lpc17xx/cr_startup_lpc176x.o (__main)

Allocating common symbols
Common symbol       size              file

rkhrg               0x2               ./src/RKH/source/rkhs.o
UART1Buffer         0x40              ./src/bsp/uart.o
trcsmaftbl          0x1               ./src/RKH/source/rkhtrc.o
UART0Buffer         0x40              ./src/bsp/uart.o
UART1Status         0x4               ./src/bsp/uart.o
trceftbl            0x10              ./src/RKH/source/rkhtrc.o
rkh_sptbl           0x8               ./src/RKH/source/rkhsma.o
trcgfilter          0x1               ./src/RKH/source/rkhtrc.o
bkytim              0x14              ./src/bkyact.o
UART0Status         0x4               ./src/bsp/uart.o

Discarded input sections

 .text          0x00000000        0x0 ./src/bsp/lpc17xx/cr_startup_lpc176x.o
 .data          0x00000000        0x0 ./src/bsp/lpc17xx/cr_startup_lpc176x.o
 .bss           0x00000000        0x0 ./src/bsp/lpc17xx/cr_startup_lpc176x.o
 .text          0x00000000        0x0 ./src/bsp/lpc17xx/lpc17xx.o
 .data          0x00000000        0x0 ./src/bsp/lpc17xx/lpc17xx.o
 .bss           0x00000000        0x0 ./src/bsp/lpc17xx/lpc17xx.o
 .text          0x00000000        0x0 ./src/bsp/lpc17xx/system_LPC17xx.o
 .data          0x00000000        0x0 ./src/bsp/lpc17xx/system_LPC17xx.o
 .bss           0x00000000        0x0 ./src/bsp/lpc17xx/system_LPC17xx.o
 .text          0x00000000        0x0 ./src/bsp/bsp.o
 .data          0x00000000        0x0 ./src/bsp/bsp.o
 .bss           0x00000000        0x0 ./src/bsp/bsp.o
 .rodata        0x00000000       0x5c ./src/bsp/bsp.o
 .rodata.m_name
                0x00000000        0x4 ./src/bsp/bsp.o
 .text.rkh_hk_exit
                0x00000000        0xc ./src/bsp/bsp.o
 .text          0x00000000        0x0 ./src/bsp/uart.o
 .data          0x00000000        0x0 ./src/bsp/uart.o
 .bss           0x00000000        0x0 ./src/bsp/uart.o
 .text.UARTSend
                0x00000000       0xb0 ./src/bsp/uart.o
 .text          0x00000000        0x0 ./src/RKH/source/portable/rkhport.o
 .data          0x00000000        0x0 ./src/RKH/source/portable/rkhport.o
 .bss           0x00000000        0x0 ./src/RKH/source/portable/rkhport.o
 .rodata        0x00000000       0x2c ./src/RKH/source/portable/rkhport.o
 .rodata.m_name
                0x00000000        0x4 ./src/RKH/source/portable/rkhport.o
 .rodata.m_version
                0x00000000        0x4 ./src/RKH/source/portable/rkhport.o
 .rodata.m_desc
                0x00000000        0x4 ./src/RKH/source/portable/rkhport.o
 .text.rkh_get_port_version
                0x00000000       0x18 ./src/RKH/source/portable/rkhport.o
 .text.rkh_get_port_desc
                0x00000000       0x18 ./src/RKH/source/portable/rkhport.o
 .text          0x00000000        0x0 ./src/RKH/source/rkh.o
 .data          0x00000000        0x0 ./src/RKH/source/rkh.o
 .bss           0x00000000        0x0 ./src/RKH/source/rkh.o
 .text.rkh_else
                0x00000000       0x1c ./src/RKH/source/rkh.o
 .text          0x00000000        0x0 ./src/RKH/source/rkhdyn.o
 .data          0x00000000        0x0 ./src/RKH/source/rkhdyn.o
 .bss           0x00000000        0x0 ./src/RKH/source/rkhdyn.o
 .text          0x00000000        0x0 ./src/RKH/source/rkhmp.o
 .data          0x00000000        0x0 ./src/RKH/source/rkhmp.o
 .bss           0x00000000        0x0 ./src/RKH/source/rkhmp.o
 .text          0x00000000        0x0 ./src/RKH/source/rkhrq.o
 .data          0x00000000        0x0 ./src/RKH/source/rkhrq.o
 .bss           0x00000000        0x0 ./src/RKH/source/rkhrq.o
 .text          0x00000000        0x0 ./src/RKH/source/rkhs.o
 .data          0x00000000        0x0 ./src/RKH/source/rkhs.o
 .bss           0x00000000        0x0 ./src/RKH/source/rkhs.o
 .rodata        0x00000000        0x8 ./src/RKH/source/rkhs.o
 .rodata.m_name
                0x00000000        0x4 ./src/RKH/source/rkhs.o
 .text.rkh_sma_terminate
                0x00000000       0x18 ./src/RKH/source/rkhs.o
 .text          0x00000000        0x0 ./src/RKH/source/rkhsma.o
 .data          0x00000000        0x0 ./src/RKH/source/rkhsma.o
 .bss           0x00000000        0x0 ./src/RKH/source/rkhsma.o
 .rodata.rkh_version
                0x00000000        0x8 ./src/RKH/source/rkhsma.o
 .text.rkh_sma_unregister
                0x00000000       0xac ./src/RKH/source/rkhsma.o
 .text          0x00000000        0x0 ./src/RKH/source/rkhtbl.o
 .data          0x00000000        0x0 ./src/RKH/source/rkhtbl.o
 .bss           0x00000000        0x0 ./src/RKH/source/rkhtbl.o
 .text          0x00000000        0x0 ./src/RKH/source/rkhtim.o
 .data          0x00000000        0x0 ./src/RKH/source/rkhtim.o
 .bss           0x00000000        0x0 ./src/RKH/source/rkhtim.o
 .text.rkh_tim_stop
                0x00000000       0xc0 ./src/RKH/source/rkhtim.o
 .text          0x00000000        0x0 ./src/RKH/source/rkhtrc.o
 .data          0x00000000        0x0 ./src/RKH/source/rkhtrc.o
 .bss           0x00000000        0x0 ./src/RKH/source/rkhtrc.o
 .rodata        0x00000000        0x8 ./src/RKH/source/rkhtrc.o
 .rodata.m_name
                0x00000000        0x4 ./src/RKH/source/rkhtrc.o
 .rodata.trccfg
                0x00000000        0xc ./src/RKH/source/rkhtrc.o
 .text.rkh_trc_config
                0x00000000       0x48 ./src/RKH/source/rkhtrc.o
 .text          0x00000000        0x0 ./src/bky.o
 .data          0x00000000        0x0 ./src/bky.o
 .bss           0x00000000        0x0 ./src/bky.o
 .text          0x00000000        0x0 ./src/bkyact.o
 .data          0x00000000        0x0 ./src/bkyact.o
 .bss           0x00000000        0x0 ./src/bkyact.o
 .text          0x00000000        0x0 ./src/main.o
 .data          0x00000000        0x0 ./src/main.o
 .bss           0x00000000        0x0 ./src/main.o
 .text          0x00000000        0x0 c:/nxp/lpcxpresso_5.0.14_1109/lpcxpresso/tools/bin/../lib/gcc/arm-none-eabi/4.6.2/../../../../arm-none-eabi/lib/armv7-m\libcr_c.a(__weak__main.o)
 .data          0x00000000        0x0 c:/nxp/lpcxpresso_5.0.14_1109/lpcxpresso/tools/bin/../lib/gcc/arm-none-eabi/4.6.2/../../../../arm-none-eabi/lib/armv7-m\libcr_c.a(__weak__main.o)
 .bss           0x00000000        0x0 c:/nxp/lpcxpresso_5.0.14_1109/lpcxpresso/tools/bin/../lib/gcc/arm-none-eabi/4.6.2/../../../../arm-none-eabi/lib/armv7-m\libcr_c.a(__weak__main.o)

Memory Configuration

Name             Origin             Length             Attributes
MFlash512        0x00000000         0x00080000         xr
RamLoc32         0x10000000         0x00008000         xrw
RamAHB32         0x2007c000         0x00008000         xrw
*default*        0x00000000         0xffffffff

Linker script and memory map

LOAD ./src/bsp/lpc17xx/cr_startup_lpc176x.o
LOAD ./src/bsp/lpc17xx/lpc17xx.o
LOAD ./src/bsp/lpc17xx/system_LPC17xx.o
LOAD ./src/bsp/bsp.o
LOAD ./src/bsp/uart.o
LOAD ./src/RKH/source/portable/rkhport.o
LOAD ./src/RKH/source/rkh.o
LOAD ./src/RKH/source/rkhdyn.o
LOAD ./src/RKH/source/rkhmp.o
LOAD ./src/RKH/source/rkhrq.o
LOAD ./src/RKH/source/rkhs.o
LOAD ./src/RKH/source/rkhsma.o
LOAD ./src/RKH/source/rkhtbl.o
LOAD ./src/RKH/source/rkhtim.o
LOAD ./src/RKH/source/rkhtrc.o
LOAD ./src/bky.o
LOAD ./src/bkyact.o
LOAD ./src/main.o
START GROUP
LOAD c:/nxp/lpcxpresso_5.0.14_1109/lpcxpresso/tools/bin/../lib/gcc/arm-none-eabi/4.6.2/../../../../arm-none-eabi/lib/armv7-m\libcr_c.a
LOAD c:/nxp/lpcxpresso_5.0.14_1109/lpcxpresso/tools/bin/../lib/gcc/arm-none-eabi/4.6.2/armv7-m\libcr_eabihelpers.a
END GROUP
                0x00080000                __top_MFlash512 = 0x80000
                0x10008000                __top_RamLoc32 = 0x10008000
                0x20084000                __top_RamAHB32 = 0x20084000

.text           0x00000000     0x2d38
 FILL mask 0xff
 *(.isr_vector)
 .isr_vector    0x00000000       0xcc ./src/bsp/lpc17xx/cr_startup_lpc176x.o
                0x00000000                g_pfnVectors
                0x000000cc                . = ALIGN (0x4)
                0x000000cc                __section_table_start = .
                0x000000cc                __data_section_table = .
                0x000000cc        0x4 LONG 0x2d38 LOADADDR (.data)
                0x000000d0        0x4 LONG 0x10000000 ADDR (.data)
                0x000000d4        0x4 LONG 0x30 SIZEOF (.data)
                0x000000d8        0x4 LONG 0x2d38 LOADADDR (.data_RAM2)
                0x000000dc        0x4 LONG 0x2007c000 ADDR (.data_RAM2)
                0x000000e0        0x4 LONG 0x0 SIZEOF (.data_RAM2)
                0x000000e4                __data_section_table_end = .
                0x000000e4                __bss_section_table = .
                0x000000e4        0x4 LONG 0x10000030 ADDR (.bss)
                0x000000e8        0x4 LONG 0x230 SIZEOF (.bss)
                0x000000ec        0x4 LONG 0x2007c000 ADDR (.bss_RAM2)
                0x000000f0        0x4 LONG 0x0 SIZEOF (.bss_RAM2)
                0x000000f4                __bss_section_table_end = .
                0x000000f4                __section_table_end = .
 *(.after_vectors*)
 .after_vectors
                0x000000f4      0x174 ./src/bsp/lpc17xx/cr_startup_lpc176x.o
                0x000000f4                data_init
                0x00000144                bss_init
                0x00000184                ResetISR
                0x00000218                NMI_Handler
                0x00000220                HardFault_Handler
                0x00000228                MemManage_Handler
                0x00000230                BusFault_Handler
                0x00000238                UsageFault_Handler
                0x00000240                SVC_Handler
                0x00000248                DebugMon_Handler
                0x00000250                PendSV_Handler
                0x00000260                CANActivity_IRQHandler
                0x00000260                TIMER3_IRQHandler
                0x00000260                PWM1_IRQHandler
                0x00000260                EINT3_IRQHandler
                0x00000260                IntDefaultHandler
                0x00000260                PLL0_IRQHandler
                0x00000260                CAN_IRQHandler
                0x00000260                PLL1_IRQHandler
                0x00000260                USBActivity_IRQHandler
                0x00000260                I2S_IRQHandler
                0x00000260                EINT2_IRQHandler
                0x00000260                RTC_IRQHandler
                0x00000260                TIMER0_IRQHandler
                0x00000260                SPI_IRQHandler
                0x00000260                I2C0_IRQHandler
                0x00000260                EINT1_IRQHandler
                0x00000260                TIMER1_IRQHandler
                0x00000260                UART2_IRQHandler
                0x00000260                ADC_IRQHandler
                0x00000260                SSP1_IRQHandler
                0x00000260                USB_IRQHandler
                0x00000260                BOD_IRQHandler
                0x00000260                I2C1_IRQHandler
                0x00000260                WDT_IRQHandler
                0x00000260                I2C2_IRQHandler
                0x00000260                QEI_IRQHandler
                0x00000260                EINT0_IRQHandler
                0x00000260                SSP0_IRQHandler
                0x00000260                DMA_IRQHandler
                0x00000260                TIMER2_IRQHandler
                0x00000260                UART3_IRQHandler
                0x00000260                MCPWM_IRQHandler
                0x00000260                ENET_IRQHandler
                0x000002fc                . = 0x2fc
 *fill*         0x00000268       0x94 ff
                0x000002fc                PROVIDE (__CRP_WORD_START__, .)
 *(.crp)
 .crp           0x000002fc        0x4 ./src/bsp/lpc17xx/lpc17xx.o
                0x000002fc                CRP_WORD
                0x00000300                PROVIDE (__CRP_WORD_END__, .)
                0x00000001                ASSERT (! ((__CRP_WORD_START__ == __CRP_WORD_END__)), Linker CRP Enabled, but no CRP_WORD provided within application)
 *(.text*)
 .text.NVIC_EnableIRQ
                0x00000300       0x38 ./src/bsp/lpc17xx/lpc17xx.o
 .text.systick_init
                0x00000338       0x58 ./src/bsp/lpc17xx/lpc17xx.o
                0x00000338                systick_init
 .text.SysTick_Handler
                0x00000390        0xc ./src/bsp/lpc17xx/lpc17xx.o
                0x00000390                SysTick_Handler
 .text.init_ts_timer
                0x0000039c      0x11c ./src/bsp/lpc17xx/lpc17xx.o
                0x0000039c                init_ts_timer
 .text.RIT_IRQHandler
                0x000004b8       0x24 ./src/bsp/lpc17xx/lpc17xx.o
                0x000004b8                RIT_IRQHandler
 .text.get_ts   0x000004dc       0x28 ./src/bsp/lpc17xx/lpc17xx.o
                0x000004dc                get_ts
 .text.cpu_init
                0x00000504       0x14 ./src/bsp/lpc17xx/lpc17xx.o
                0x00000504                cpu_init
 .text.SystemInit
                0x00000518      0x1e4 ./src/bsp/lpc17xx/system_LPC17xx.o
                0x00000518                SystemInit
 .text.SystemClockUpdate
                0x000006fc      0x224 ./src/bsp/lpc17xx/system_LPC17xx.o
                0x000006fc                SystemClockUpdate
 .text.rkh_hk_start
                0x00000920        0xc ./src/bsp/bsp.o
                0x00000920                rkh_hk_start
 .text.rkh_hk_idle
                0x0000092c        0xc ./src/bsp/bsp.o
                0x0000092c                rkh_hk_idle
 .text.rkh_assert
                0x00000938       0x18 ./src/bsp/bsp.o
                0x00000938                rkh_assert
 .text.rkh_trc_open
                0x00000950       0x20 ./src/bsp/bsp.o
                0x00000950                rkh_trc_open
 .text.rkh_trc_close
                0x00000970        0xc ./src/bsp/bsp.o
                0x00000970                rkh_trc_close
 .text.rkh_trc_getts
                0x0000097c       0x10 ./src/bsp/bsp.o
                0x0000097c                rkh_trc_getts
 .text.rkh_trc_flush
                0x0000098c       0x2c ./src/bsp/bsp.o
                0x0000098c                rkh_trc_flush
 .text.bsp_init
                0x000009b8       0x28 ./src/bsp/bsp.o
                0x000009b8                bsp_init
 .text.bsp_led_on
                0x000009e0       0x18 ./src/bsp/bsp.o
                0x000009e0                bsp_led_on
 .text.bsp_led_off
                0x000009f8       0x18 ./src/bsp/bsp.o
                0x000009f8                bsp_led_off
 .text.NVIC_EnableIRQ
                0x00000a10       0x38 ./src/bsp/uart.o
 .text.UART0_IRQHandler
                0x00000a48      0x17c ./src/bsp/uart.o
                0x00000a48                UART0_IRQHandler
 .text.UART1_IRQHandler
                0x00000bc4      0x17c ./src/bsp/uart.o
                0x00000bc4                UART1_IRQHandler
 .text.UARTInit
                0x00000d40      0x26c ./src/bsp/uart.o
                0x00000d40                UARTInit
 .text.UARTPutc
                0x00000fac       0x80 ./src/bsp/uart.o
                0x00000fac                UARTPutc
 .text.rkh_enter_critical
                0x0000102c       0x2c ./src/RKH/source/portable/rkhport.o
                0x0000102c                rkh_enter_critical
 .text.rkh_exit_critical
                0x00001058       0x3c ./src/RKH/source/portable/rkhport.o
                0x00001058                rkh_exit_critical
 .text.rkh_add_tr_action
                0x00001094       0x54 ./src/RKH/source/rkh.o
 .text.rkh_init_hsm
                0x000010e8       0xc4 ./src/RKH/source/rkh.o
                0x000010e8                rkh_init_hsm
 .text.rkh_dispatch
                0x000011ac      0x5b4 ./src/RKH/source/rkh.o
                0x000011ac                rkh_dispatch
 .text.rkh_sma_post_fifo
                0x00001760       0x20 ./src/RKH/source/rkhdyn.o
                0x00001760                rkh_sma_post_fifo
 .text.rkh_sma_get
                0x00001780       0x94 ./src/RKH/source/rkhdyn.o
                0x00001780                rkh_sma_get
 .text.rkh_rq_init
                0x00001814       0x50 ./src/RKH/source/rkhrq.o
                0x00001814                rkh_rq_init
 .text.rkh_rq_get
                0x00001864      0x200 ./src/RKH/source/rkhrq.o
                0x00001864                rkh_rq_get
 .text.rkh_rq_put_fifo
                0x00001a64      0x1c4 ./src/RKH/source/rkhrq.o
                0x00001a64                rkh_rq_put_fifo
 .text.rkh_init
                0x00001c28        0xc ./src/RKH/source/rkhs.o
                0x00001c28                rkh_init
 .text.rkh_enter
                0x00001c34       0xb4 ./src/RKH/source/rkhs.o
                0x00001c34                rkh_enter
 .text.rkh_exit
                0x00001ce8       0x38 ./src/RKH/source/rkhs.o
                0x00001ce8                rkh_exit
 .text.rkh_sma_activate
                0x00001d20       0x38 ./src/RKH/source/rkhs.o
                0x00001d20                rkh_sma_activate
 .text.rkh_sma_register
                0x00001d58       0xa8 ./src/RKH/source/rkhsma.o
                0x00001d58                rkh_sma_register
 .text.rem_from_list
                0x00001e00       0x7c ./src/RKH/source/rkhtim.o
 .text.rkh_tim_tick
                0x00001e7c       0xe0 ./src/RKH/source/rkhtim.o
                0x00001e7c                rkh_tim_tick
 .text.rkh_tim_init_
                0x00001f5c       0xe0 ./src/RKH/source/rkhtim.o
                0x00001f5c                rkh_tim_init_
 .text.rkh_tim_start
                0x0000203c      0x110 ./src/RKH/source/rkhtim.o
                0x0000203c                rkh_tim_start
 .text.rkh_trc_init
                0x0000214c       0x70 ./src/RKH/source/rkhtrc.o
                0x0000214c                rkh_trc_init
 .text.rkh_trc_control
                0x000021bc       0x20 ./src/RKH/source/rkhtrc.o
                0x000021bc                rkh_trc_control
 .text.rkh_trc_put
                0x000021dc       0xa4 ./src/RKH/source/rkhtrc.o
                0x000021dc                rkh_trc_put
 .text.rkh_trc_get
                0x00002280       0x8c ./src/RKH/source/rkhtrc.o
                0x00002280                rkh_trc_get
 .text.rkh_trc_isoff_
                0x0000230c       0x90 ./src/RKH/source/rkhtrc.o
                0x0000230c                rkh_trc_isoff_
 .text.rkh_trc_filter_group_
                0x0000239c      0x10c ./src/RKH/source/rkhtrc.o
                0x0000239c                rkh_trc_filter_group_
 .text.rkh_trc_filter_event_
                0x000024a8      0x144 ./src/RKH/source/rkhtrc.o
                0x000024a8                rkh_trc_filter_event_
 .text.rkh_trc_sma_isoff_
                0x000025ec       0x54 ./src/RKH/source/rkhtrc.o
                0x000025ec                rkh_trc_sma_isoff_
 .text.rkh_trc_filter_sma_
                0x00002640       0x8c ./src/RKH/source/rkhtrc.o
                0x00002640                rkh_trc_filter_sma_
 .text.rkh_trc_begin
                0x000026cc       0x60 ./src/RKH/source/rkhtrc.o
                0x000026cc                rkh_trc_begin
 .text.rkh_trc_end
                0x0000272c       0x38 ./src/RKH/source/rkhtrc.o
                0x0000272c                rkh_trc_end
 .text.rkh_trc_u8
                0x00002764       0x58 ./src/RKH/source/rkhtrc.o
                0x00002764                rkh_trc_u8
 .text.rkh_trc_u16
                0x000027bc       0x30 ./src/RKH/source/rkhtrc.o
                0x000027bc                rkh_trc_u16
 .text.rkh_trc_u32
                0x000027ec       0x50 ./src/RKH/source/rkhtrc.o
                0x000027ec                rkh_trc_u32
 .text.rkh_trc_str
                0x0000283c       0x34 ./src/RKH/source/rkhtrc.o
                0x0000283c                rkh_trc_str
 .text.blinky_init
                0x00002870       0x30 ./src/bkyact.o
                0x00002870                blinky_init
 .text.blinky_led_on
                0x000028a0       0x54 ./src/bkyact.o
                0x000028a0                blinky_led_on
 .text.blinky_led_off
                0x000028f4       0x40 ./src/bkyact.o
                0x000028f4                blinky_led_off
 .text.main     0x00002934      0x1e8 ./src/main.o
                0x00002934                main
 .text.__weak_main
                0x00002b1c        0x4 c:/nxp/lpcxpresso_5.0.14_1109/lpcxpresso/tools/bin/../lib/gcc/arm-none-eabi/4.6.2/../../../../arm-none-eabi/lib/armv7-m\libcr_c.a(__weak__main.o)
                0x00002b1c                __weak_main
                0x00002b1c                __main
 *(.rodata .rodata.*)
 .rodata        0x00002b20        0x4 ./src/RKH/source/rkh.o
 .rodata.m_name
                0x00002b24        0x4 ./src/RKH/source/rkh.o
 .rodata        0x00002b28        0x8 ./src/RKH/source/rkhdyn.o
 .rodata.m_name
                0x00002b30        0x4 ./src/RKH/source/rkhdyn.o
 .rodata        0x00002b34        0x8 ./src/RKH/source/rkhrq.o
 .rodata.m_name
                0x00002b3c        0x4 ./src/RKH/source/rkhrq.o
 .rodata        0x00002b40        0x8 ./src/RKH/source/rkhsma.o
 .rodata.m_name
                0x00002b48        0x4 ./src/RKH/source/rkhsma.o
 .rodata.rkh_maptbl
                0x00002b4c        0x8 ./src/RKH/source/rkhtbl.o
                0x00002b4c                rkh_maptbl
 .rodata.rkh_unmaptbl
                0x00002b54      0x100 ./src/RKH/source/rkhtbl.o
                0x00002b54                rkh_unmaptbl
 .rodata        0x00002c54        0x8 ./src/RKH/source/rkhtim.o
 .rodata.m_name
                0x00002c5c        0x4 ./src/RKH/source/rkhtim.o
 .rodata.trcgmtbl
                0x00002c60        0x8 ./src/RKH/source/rkhtrc.o
 .rodata.rs_blinky
                0x00002c68        0xc ./src/bky.o
 .rodata.blinky
                0x00002c74        0x4 ./src/bky.o
                0x00002c74                blinky
 .rodata.led_on
                0x00002c78       0x14 ./src/bky.o
                0x00002c78                led_on
 .rodata.led_on_trtbl
                0x00002c8c       0x20 ./src/bky.o
                0x00002c8c                led_on_trtbl
 .rodata.led_off
                0x00002cac       0x14 ./src/bky.o
                0x00002cac                led_off
 .rodata.led_off_trtbl
                0x00002cc0       0x20 ./src/bky.o
                0x00002cc0                led_off_trtbl
 .rodata.e_tout
                0x00002ce0        0x4 ./src/bkyact.o
 .rodata        0x00002ce4       0x3c ./src/main.o
 .rodata.__o_n.5317
                0x00002d20        0x4 ./src/main.o
 .rodata.__o_n.5318
                0x00002d24        0x4 ./src/main.o
 .rodata.__o_n.5319
                0x00002d28        0x4 ./src/main.o
 .rodata.__o_n.5320
                0x00002d2c        0x4 ./src/main.o
 .rodata.__o_n.5321
                0x00002d30        0x4 ./src/main.o
 .rodata.__s_n.5322
                0x00002d34        0x4 ./src/main.o
                0x00002d38                . = ALIGN (0x4)

.glue_7         0x00002d38        0x0
 .glue_7        0x00000000        0x0 linker stubs

.glue_7t        0x00002d38        0x0
 .glue_7t       0x00000000        0x0 linker stubs

.vfp11_veneer   0x00002d38        0x0
 .vfp11_veneer  0x00000000        0x0 linker stubs

.v4_bx          0x00002d38        0x0
 .v4_bx         0x00000000        0x0 linker stubs

.ARM.extab
 *(.ARM.extab* .gnu.linkonce.armextab.*)
                0x00002d38                __exidx_start = .

.ARM.exidx
 *(.ARM.exidx* .gnu.linkonce.armexidx.*)
                0x00002d38                __exidx_end = .
                0x00002d38                _etext = .

.data_RAM2      0x2007c000        0x0 load address 0x00002d38
 FILL mask 0xff
 *(.data.$RAM2*)
 *(.data.$RamAHB32*)
                0x2007c000                . = ALIGN (0x4)

.uninit_RESERVED
                0x10000000        0x0
 *(.bss.$RESERVED*)
                0x10000000                . = ALIGN (0x4)
                0x10000000                _end_uninit_RESERVED = .

.data           0x10000000       0x30 load address 0x00002d38
 FILL mask 0xff
                0x10000000                _data = .
 *(vtable)
 *(.data*)
 .data.SystemFrequency
                0x10000000        0x4 ./src/bsp/lpc17xx/system_LPC17xx.o
                0x10000000                SystemFrequency
 .data.UART0TxEmpty
                0x10000004        0x1 ./src/bsp/uart.o
                0x10000004                UART0TxEmpty
 .data.UART1TxEmpty
                0x10000005        0x1 ./src/bsp/uart.o
                0x10000005                UART1TxEmpty
 *fill*         0x10000006        0x2 00
 .data.s_blinky
                0x10000008       0x28 ./src/bky.o
                0x10000030                . = ALIGN (0x4)
                0x10000030                _edata = .

.bss_RAM2       0x2007c000        0x0
 *(.bss.$RAM2*)
 *(.bss.$RamAHB32*)
                0x2007c000                . = ALIGN (0x4)

.bss            0x10000030      0x230
                0x10000030                _bss = .
 *(.bss*)
 .bss.pclk      0x10000030        0x4 ./src/bsp/lpc17xx/lpc17xx.o
 .bss.UART0Count
                0x10000034        0x4 ./src/bsp/uart.o
                0x10000034                UART0Count
 .bss.UART1Count
                0x10000038        0x4 ./src/bsp/uart.o
                0x10000038                UART1Count
 .bss.critical_nesting
                0x1000003c        0x4 ./src/RKH/source/portable/rkhport.o
 .bss.stn.4348  0x10000040        0x4 ./src/RKH/source/rkh.o
 .bss.nn.4354   0x10000044        0x1 ./src/RKH/source/rkh.o
 .bss.nal.4358  0x10000045        0x1 ./src/RKH/source/rkh.o
 *fill*         0x10000046        0x2 00
 .bss.pal.4357  0x10000048        0x4 ./src/RKH/source/rkh.o
 .bss.al.4356   0x1000004c       0x10 ./src/RKH/source/rkh.o
 .bss.ix_n.4351
                0x1000005c        0x1 ./src/RKH/source/rkh.o
 .bss.islca.4353
                0x1000005d        0x1 ./src/RKH/source/rkh.o
 .bss.ix_x.4352
                0x1000005e        0x1 ./src/RKH/source/rkh.o
 *fill*         0x1000005f        0x1 00
 .bss.stx.4349  0x10000060        0x4 ./src/RKH/source/rkh.o
 .bss.snl.4350  0x10000064        0x4 ./src/RKH/source/rkh.o
 .bss.sentry.4355
                0x10000068       0x10 ./src/RKH/source/rkh.o
 .bss.thead     0x10000078        0x4 ./src/RKH/source/rkhtim.o
 .bss.trcstm    0x1000007c      0x100 ./src/RKH/source/rkhtrc.o
 .bss.trcin     0x1000017c        0x4 ./src/RKH/source/rkhtrc.o
 .bss.trcout    0x10000180        0x4 ./src/RKH/source/rkhtrc.o
 .bss.trcend    0x10000184        0x4 ./src/RKH/source/rkhtrc.o
 .bss.trcctrl   0x10000188        0x4 ./src/RKH/source/rkhtrc.o
 .bss.chk       0x1000018c        0x1 ./src/RKH/source/rkhtrc.o
 .bss.nseq      0x1000018d        0x1 ./src/RKH/source/rkhtrc.o
 .bss.trcqty    0x1000018e        0x2 ./src/RKH/source/rkhtrc.o
 .bss.qsto      0x10000190       0x10 ./src/main.o
 *(COMMON)
 COMMON         0x100001a0       0x88 ./src/bsp/uart.o
                0x100001a0                UART1Buffer
                0x100001e0                UART0Buffer
                0x10000220                UART1Status
                0x10000224                UART0Status
 COMMON         0x10000228        0x2 ./src/RKH/source/rkhs.o
                0x10000228                rkhrg
 *fill*         0x1000022a        0x2 00
 COMMON         0x1000022c        0x8 ./src/RKH/source/rkhsma.o
                0x1000022c                rkh_sptbl
 COMMON         0x10000234       0x15 ./src/RKH/source/rkhtrc.o
                0x10000234                trcsmaftbl
                0x10000238                trceftbl
                0x10000248                trcgfilter
 *fill*         0x10000249        0x3 00
 COMMON         0x1000024c       0x14 ./src/bkyact.o
                0x1000024c                bkytim
                0x10000260                . = ALIGN (0x4)
                0x10000260                _ebss = .
                0x10000260                PROVIDE (end, .)

.noinit_RAM2    0x2007c000        0x0
 *(.noinit.$RAM2*)
 *(.noinit.$RamAHB32*)
                0x2007c000                . = ALIGN (0x4)

.noinit         0x10000260        0x0
                0x10000260                _noinit = .
 *(.noinit*)
                0x10000260                . = ALIGN (0x4)
                0x10000260                _end_noinit = .
                0x10000260                PROVIDE (_pvHeapStart, .)
                0x10008000                PROVIDE (_vStackTop, (__top_RamLoc32 - 0x0))
OUTPUT(blinky.axf elf32-littlearm)

.debug_info     0x00000000     0x63ce
 .debug_info    0x00000000      0x2ea ./src/bsp/lpc17xx/cr_startup_lpc176x.o
 .debug_info    0x000002ea      0x731 ./src/bsp/lpc17xx/lpc17xx.o
 .debug_info    0x00000a1b      0x388 ./src/bsp/lpc17xx/system_LPC17xx.o
 .debug_info    0x00000da3      0x587 ./src/bsp/bsp.o
 .debug_info    0x0000132a      0xd15 ./src/bsp/uart.o
 .debug_info    0x0000203f      0x181 ./src/RKH/source/portable/rkhport.o
 .debug_info    0x000021c0      0x936 ./src/RKH/source/rkh.o
 .debug_info    0x00002af6      0x550 ./src/RKH/source/rkhdyn.o
 .debug_info    0x00003046       0x6c ./src/RKH/source/rkhmp.o
 .debug_info    0x000030b2      0x5d5 ./src/RKH/source/rkhrq.o
 .debug_info    0x00003687      0x69b ./src/RKH/source/rkhs.o
 .debug_info    0x00003d22      0x54e ./src/RKH/source/rkhsma.o
 .debug_info    0x00004270      0x102 ./src/RKH/source/rkhtbl.o
 .debug_info    0x00004372      0x67e ./src/RKH/source/rkhtim.o
 .debug_info    0x000049f0      0x7ad ./src/RKH/source/rkhtrc.o
 .debug_info    0x0000519d      0x549 ./src/bky.o
 .debug_info    0x000056e6      0x4e5 ./src/bkyact.o
 .debug_info    0x00005bcb      0x803 ./src/main.o

.debug_abbrev   0x00000000     0x1641
 .debug_abbrev  0x00000000       0xf8 ./src/bsp/lpc17xx/cr_startup_lpc176x.o
 .debug_abbrev  0x000000f8      0x17b ./src/bsp/lpc17xx/lpc17xx.o
 .debug_abbrev  0x00000273       0xe3 ./src/bsp/lpc17xx/system_LPC17xx.o
 .debug_abbrev  0x00000356      0x166 ./src/bsp/bsp.o
 .debug_abbrev  0x000004bc      0x1d0 ./src/bsp/uart.o
 .debug_abbrev  0x0000068c       0x9c ./src/RKH/source/portable/rkhport.o
 .debug_abbrev  0x00000728      0x1cb ./src/RKH/source/rkh.o
 .debug_abbrev  0x000008f3      0x14e ./src/RKH/source/rkhdyn.o
 .debug_abbrev  0x00000a41       0x2a ./src/RKH/source/rkhmp.o
 .debug_abbrev  0x00000a6b      0x191 ./src/RKH/source/rkhrq.o
 .debug_abbrev  0x00000bfc      0x19e ./src/RKH/source/rkhs.o
 .debug_abbrev  0x00000d9a      0x14d ./src/RKH/source/rkhsma.o
 .debug_abbrev  0x00000ee7       0x79 ./src/RKH/source/rkhtbl.o
 .debug_abbrev  0x00000f60      0x159 ./src/RKH/source/rkhtim.o
 .debug_abbrev  0x000010b9      0x165 ./src/RKH/source/rkhtrc.o
 .debug_abbrev  0x0000121e      0x157 ./src/bky.o
 .debug_abbrev  0x00001375      0x146 ./src/bkyact.o
 .debug_abbrev  0x000014bb      0x186 ./src/main.o

.debug_loc      0x00000000     0x10d4
 .debug_loc     0x00000000      0x260 ./src/bsp/lpc17xx/cr_startup_lpc176x.o
 .debug_loc     0x00000260      0x14c ./src/bsp/lpc17xx/lpc17xx.o
 .debug_loc     0x000003ac       0x64 ./src/bsp/lpc17xx/system_LPC17xx.o
 .debug_loc     0x00000410      0x208 ./src/bsp/bsp.o
 .debug_loc     0x00000618      0x150 ./src/bsp/uart.o
 .debug_loc     0x00000768       0xb0 ./src/RKH/source/portable/rkhport.o
 .debug_loc     0x00000818       0xe0 ./src/RKH/source/rkh.o
 .debug_loc     0x000008f8       0x70 ./src/RKH/source/rkhdyn.o
 .debug_loc     0x00000968       0xa8 ./src/RKH/source/rkhrq.o
 .debug_loc     0x00000a10      0x100 ./src/RKH/source/rkhs.o
 .debug_loc     0x00000b10       0x70 ./src/RKH/source/rkhsma.o
 .debug_loc     0x00000b80      0x118 ./src/RKH/source/rkhtim.o
 .debug_loc     0x00000c98      0x35c ./src/RKH/source/rkhtrc.o
 .debug_loc     0x00000ff4       0xa8 ./src/bkyact.o
 .debug_loc     0x0000109c       0x38 ./src/main.o

.debug_aranges  0x00000000      0x408
 .debug_aranges
                0x00000000       0x80 ./src/bsp/lpc17xx/cr_startup_lpc176x.o
 .debug_aranges
                0x00000080       0x50 ./src/bsp/lpc17xx/lpc17xx.o
 .debug_aranges
                0x000000d0       0x28 ./src/bsp/lpc17xx/system_LPC17xx.o
 .debug_aranges
                0x000000f8       0x70 ./src/bsp/bsp.o
 .debug_aranges
                0x00000168       0x48 ./src/bsp/uart.o
 .debug_aranges
                0x000001b0       0x38 ./src/RKH/source/portable/rkhport.o
 .debug_aranges
                0x000001e8       0x38 ./src/RKH/source/rkh.o
 .debug_aranges
                0x00000220       0x28 ./src/RKH/source/rkhdyn.o
 .debug_aranges
                0x00000248       0x30 ./src/RKH/source/rkhrq.o
 .debug_aranges
                0x00000278       0x40 ./src/RKH/source/rkhs.o
 .debug_aranges
                0x000002b8       0x28 ./src/RKH/source/rkhsma.o
 .debug_aranges
                0x000002e0       0x40 ./src/RKH/source/rkhtim.o
 .debug_aranges
                0x00000320       0x98 ./src/RKH/source/rkhtrc.o
 .debug_aranges
                0x000003b8       0x30 ./src/bkyact.o
 .debug_aranges
                0x000003e8       0x20 ./src/main.o

.debug_ranges   0x00000000      0x318
 .debug_ranges  0x00000000       0x70 ./src/bsp/lpc17xx/cr_startup_lpc176x.o
 .debug_ranges  0x00000070       0x40 ./src/bsp/lpc17xx/lpc17xx.o
 .debug_ranges  0x000000b0       0x18 ./src/bsp/lpc17xx/system_LPC17xx.o
 .debug_ranges  0x000000c8       0x60 ./src/bsp/bsp.o
 .debug_ranges  0x00000128       0x38 ./src/bsp/uart.o
 .debug_ranges  0x00000160       0x28 ./src/RKH/source/portable/rkhport.o
 .debug_ranges  0x00000188       0x28 ./src/RKH/source/rkh.o
 .debug_ranges  0x000001b0       0x18 ./src/RKH/source/rkhdyn.o
 .debug_ranges  0x000001c8       0x20 ./src/RKH/source/rkhrq.o
 .debug_ranges  0x000001e8       0x30 ./src/RKH/source/rkhs.o
 .debug_ranges  0x00000218       0x18 ./src/RKH/source/rkhsma.o
 .debug_ranges  0x00000230       0x30 ./src/RKH/source/rkhtim.o
 .debug_ranges  0x00000260       0x88 ./src/RKH/source/rkhtrc.o
 .debug_ranges  0x000002e8       0x20 ./src/bkyact.o
 .debug_ranges  0x00000308       0x10 ./src/main.o

.debug_line     0x00000000     0x6e4b
 .debug_line    0x00000000      0x3d6 ./src/bsp/lpc17xx/cr_startup_lpc176x.o
 .debug_line    0x000003d6      0x7e2 ./src/bsp/lpc17xx/lpc17xx.o
 .debug_line    0x00000bb8      0x3d8 ./src/bsp/lpc17xx/system_LPC17xx.o
 .debug_line    0x00000f90      0x787 ./src/bsp/bsp.o
 .debug_line    0x00001717      0x7be ./src/bsp/uart.o
 .debug_line    0x00001ed5      0x73c ./src/RKH/source/portable/rkhport.o
 .debug_line    0x00002611      0x6c4 ./src/RKH/source/rkh.o
 .debug_line    0x00002cd5      0x562 ./src/RKH/source/rkhdyn.o
 .debug_line    0x00003237      0x522 ./src/RKH/source/rkhmp.o
 .debug_line    0x00003759      0x5f0 ./src/RKH/source/rkhrq.o
 .debug_line    0x00003d49      0x5a1 ./src/RKH/source/rkhs.o
 .debug_line    0x000042ea      0x586 ./src/RKH/source/rkhsma.o
 .debug_line    0x00004870      0x523 ./src/RKH/source/rkhtbl.o
 .debug_line    0x00004d93      0x649 ./src/RKH/source/rkhtim.o
 .debug_line    0x000053dc      0x71b ./src/RKH/source/rkhtrc.o
 .debug_line    0x00005af7      0x540 ./src/bky.o
 .debug_line    0x00006037      0x713 ./src/bkyact.o
 .debug_line    0x0000674a      0x701 ./src/main.o

.debug_macinfo  0x00000000    0x8f6e5
 .debug_macinfo
                0x00000000     0x3d80 ./src/bsp/lpc17xx/cr_startup_lpc176x.o
 .debug_macinfo
                0x00003d80     0xa361 ./src/bsp/lpc17xx/lpc17xx.o
 .debug_macinfo
                0x0000e0e1     0x59ea ./src/bsp/lpc17xx/system_LPC17xx.o
 .debug_macinfo
                0x00013acb     0xa5dd ./src/bsp/bsp.o
 .debug_macinfo
                0x0001e0a8     0xa394 ./src/bsp/uart.o
 .debug_macinfo
                0x0002843c     0xa385 ./src/RKH/source/portable/rkhport.o
 .debug_macinfo
                0x000327c1     0x7b60 ./src/RKH/source/rkh.o
 .debug_macinfo
                0x0003a321     0x7338 ./src/RKH/source/rkhdyn.o
 .debug_macinfo
                0x00041659     0x731d ./src/RKH/source/rkhmp.o
 .debug_macinfo
                0x00048976     0x7385 ./src/RKH/source/rkhrq.o
 .debug_macinfo
                0x0004fcfb     0x731d ./src/RKH/source/rkhs.o
 .debug_macinfo
                0x00057018     0x731d ./src/RKH/source/rkhsma.o
 .debug_macinfo
                0x0005e335     0x7319 ./src/RKH/source/rkhtbl.o
 .debug_macinfo
                0x0006564e     0x73b6 ./src/RKH/source/rkhtim.o
 .debug_macinfo
                0x0006ca04     0x736e ./src/RKH/source/rkhtrc.o
 .debug_macinfo
                0x00073d72     0x737f ./src/bky.o
 .debug_macinfo
                0x0007b0f1     0xa301 ./src/bkyact.o
 .debug_macinfo
                0x000853f2     0xa2f3 ./src/main.o

.debug_str      0x00000000     0x1862
 .debug_str     0x00000000      0x289 ./src/bsp/lpc17xx/cr_startup_lpc176x.o
                                0x2b1 (size before relaxing)
 .debug_str     0x00000289      0x4b5 ./src/bsp/lpc17xx/lpc17xx.o
                                0x604 (size before relaxing)
 .debug_str     0x0000073e       0x46 ./src/bsp/lpc17xx/system_LPC17xx.o
                                0x2d1 (size before relaxing)
 .debug_str     0x00000784      0x25e ./src/bsp/bsp.o
                                0x3c2 (size before relaxing)
 .debug_str     0x000009e2      0x28b ./src/bsp/uart.o
                                0x787 (size before relaxing)
 .debug_str     0x00000c6d       0xbe ./src/RKH/source/portable/rkhport.o
                                0x20e (size before relaxing)
 .debug_str     0x00000d2b      0x605 ./src/RKH/source/rkh.o
                                0x771 (size before relaxing)
 .debug_str     0x00001330       0x3e ./src/RKH/source/rkhdyn.o
                                0x60d (size before relaxing)
 .debug_str     0x0000136e       0x1f ./src/RKH/source/rkhmp.o
                                 0xdc (size before relaxing)
 .debug_str     0x0000138d       0x6c ./src/RKH/source/rkhrq.o
                                0x621 (size before relaxing)
 .debug_str     0x000013f9       0x87 ./src/RKH/source/rkhs.o
                                0x664 (size before relaxing)
 .debug_str     0x00001480       0x50 ./src/RKH/source/rkhsma.o
                                0x60f (size before relaxing)
 .debug_str     0x000014d0       0x20 ./src/RKH/source/rkhtbl.o
                                0x165 (size before relaxing)
 .debug_str     0x000014f0       0xa6 ./src/RKH/source/rkhtim.o
                                0x67f (size before relaxing)
 .debug_str     0x00001596      0x19d ./src/RKH/source/rkhtrc.o
                                0x6b6 (size before relaxing)
 .debug_str     0x00001733       0x8e ./src/bky.o
                                0x330 (size before relaxing)
 .debug_str     0x000017c1       0x62 ./src/bkyact.o
                                0x306 (size before relaxing)
 .debug_str     0x00001823       0x3f ./src/main.o
                                0x70d (size before relaxing)

.comment        0x00000000       0x70
 .comment       0x00000000       0x70 ./src/bsp/lpc17xx/cr_startup_lpc176x.o
                                 0x71 (size before relaxing)
 .comment       0x00000000       0x71 ./src/bsp/lpc17xx/lpc17xx.o
 .comment       0x00000000       0x71 ./src/bsp/lpc17xx/system_LPC17xx.o
 .comment       0x00000000       0x71 ./src/bsp/bsp.o
 .comment       0x00000000       0x71 ./src/bsp/uart.o
 .comment       0x00000000       0x71 ./src/RKH/source/portable/rkhport.o
 .comment       0x00000000       0x71 ./src/RKH/source/rkh.o
 .comment       0x00000000       0x71 ./src/RKH/source/rkhdyn.o
 .comment       0x00000000       0x71 ./src/RKH/source/rkhmp.o
 .comment       0x00000000       0x71 ./src/RKH/source/rkhrq.o
 .comment       0x00000000       0x71 ./src/RKH/source/rkhs.o
 .comment       0x00000000       0x71 ./src/RKH/source/rkhsma.o
 .comment       0x00000000       0x71 ./src/RKH/source/rkhtbl.o
 .comment       0x00000000       0x71 ./src/RKH/source/rkhtim.o
 .comment       0x00000000       0x71 ./src/RKH/source/rkhtrc.o
 .comment       0x00000000       0x71 ./src/bky.o
 .comment       0x00000000       0x71 ./src/bkyact.o
 .comment       0x00000000       0x71 ./src/main.o
 .comment       0x00000000       0x71 c:/nxp/lpcxpresso_5.0.14_1109/lpcxpresso/tools/bin/../lib/gcc/arm-none-eabi/4.6.2/../../../../arm-none-eabi/lib/armv7-m\libcr_c.a(__weak__main.o)

.ARM.attributes
                0x00000000       0x33
 .ARM.attributes
                0x00000000       0x33 ./src/bsp/lpc17xx/cr_startup_lpc176x.o
 .ARM.attributes
                0x00000033       0x33 ./src/bsp/lpc17xx/lpc17xx.o
 .ARM.attributes
                0x00000066       0x33 ./src/bsp/lpc17xx/system_LPC17xx.o
 .ARM.attributes
                0x00000099       0x33 ./src/bsp/bsp.o
 .ARM.attributes
                0x000000cc       0x33 ./src/bsp/uart.o
 .ARM.attributes
                0x000000ff       0x33 ./src/RKH/source/portable/rkhport.o
 .ARM.attributes
                0x00000132       0x33 ./src/RKH/source/rkh.o
 .ARM.attributes
                0x00000165       0x33 ./src/RKH/source/rkhdyn.o
 .ARM.attributes
                0x00000198       0x33 ./src/RKH/source/rkhmp.o
 .ARM.attributes
                0x000001cb       0x33 ./src/RKH/source/rkhrq.o
 .ARM.attributes
                0x000001fe       0x33 ./src/RKH/source/rkhs.o
 .ARM.attributes
                0x00000231       0x33 ./src/RKH/source/rkhsma.o
 .ARM.attributes
                0x00000264       0x33 ./src/RKH/source/rkhtbl.o
 .ARM.attributes
                0x00000297       0x33 ./src/RKH/source/rkhtim.o
 .ARM.attributes
                0x000002ca       0x33 ./src/RKH/source/rkhtrc.o
 .ARM.attributes
                0x000002fd       0x33 ./src/bky.o
 .ARM.attributes
                0x00000330       0x33 ./src/bkyact.o
 .ARM.attributes
                0x00000363       0x33 ./src/main.o
 .ARM.attributes
                0x00000396       0x33 c:/nxp/lpcxpresso_5.0.14_1109/lpcxpresso/tools/bin/../lib/gcc/arm-none-eabi/4.6.2/../../../../arm-none-eabi/lib/armv7-m\libcr_c.a(__weak__main.o)

.debug_frame    0x00000000      0xa40
 .debug_frame   0x00000000      0x158 ./src/bsp/lpc17xx/cr_startup_lpc176x.o
 .debug_frame   0x00000158       0xcc ./src/bsp/lpc17xx/lpc17xx.o
 .debug_frame   0x00000224       0x44 ./src/bsp/lpc17xx/system_LPC17xx.o
 .debug_frame   0x00000268      0x140 ./src/bsp/bsp.o
 .debug_frame   0x000003a8       0xbc ./src/bsp/uart.o
 .debug_frame   0x00000464       0x70 ./src/RKH/source/portable/rkhport.o
 .debug_frame   0x000004d4       0x88 ./src/RKH/source/rkh.o
 .debug_frame   0x0000055c       0x50 ./src/RKH/source/rkhdyn.o
 .debug_frame   0x000005ac       0x6c ./src/RKH/source/rkhrq.o
 .debug_frame   0x00000618       0xa4 ./src/RKH/source/rkhs.o
 .debug_frame   0x000006bc       0x50 ./src/RKH/source/rkhsma.o
 .debug_frame   0x0000070c       0xb0 ./src/RKH/source/rkhtim.o
 .debug_frame   0x000007bc      0x1e4 ./src/RKH/source/rkhtrc.o
 .debug_frame   0x000009a0       0x70 ./src/bkyact.o
 .debug_frame   0x00000a10       0x30 ./src/main.o
